target datalayout = "e-m:e-p270:32:32-p271:32:32-p272:64:64-i64:64-i128:128-f80:128-n8:16:32:64-S128"
target triple = "x86_64-pc-linux-gnu"

@ff_ac3_heavy_dynamic_range_tab = global [256 x float] zeroinitializer, align 16
@ungroup_3_in_7_bits_tab = internal global [128 x [3 x i8]] zeroinitializer, align 16
@ff_ac3_ungroup_3_in_5_bits_tab = external constant [32 x [3 x i8]], align 16
@b1_mantissas = internal global [32 x [3 x i32]] zeroinitializer, align 16
@b2_mantissas = internal global [128 x [3 x i32]] zeroinitializer, align 16
@b4_mantissas = internal global [128 x [2 x i32]] zeroinitializer, align 16
@b3_mantissas = internal global [8 x i32] zeroinitializer, align 16
@b5_mantissas = internal global [16 x i32] zeroinitializer, align 16
@dynamic_range_tab = internal global [256 x float] zeroinitializer, align 16

; Function Attrs: inlinehint nounwind uwtable
define internal i32 @symmetric_dequant(i32 noundef %0, i32 noundef %1) #5 {
  %3 = alloca i32, align 4
  %4 = alloca i32, align 4
  store i32 %0, ptr %3, align 4, !tbaa !42
  store i32 %1, ptr %4, align 4, !tbaa !42
  %5 = load i32, ptr %3, align 4, !tbaa !42
  %6 = load i32, ptr %4, align 4, !tbaa !42
  %7 = ashr i32 %6, 1
  %8 = sub nsw i32 %5, %7
  %9 = mul nsw i32 %8, 16777216
  %10 = load i32, ptr %4, align 4, !tbaa !42
  %11 = sdiv i32 %9, %10
  ret i32 %11
}

; Function Attrs: cold nounwind optsize uwtable
define internal void @ac3_tables_init() #0 {
  %1 = alloca i32, align 4
  %2 = alloca i32, align 4
  %3 = alloca i32, align 4
  call void @llvm.lifetime.start.p0(i64 4, ptr %1) #12
  store i32 0, ptr %1, align 4, !tbaa !42
  br label %4

4:                                                ; preds = %31, %0
  %5 = load i32, ptr %1, align 4, !tbaa !42
  %6 = icmp slt i32 %5, 128
  br i1 %6, label %7, label %34

7:                                                ; preds = %4
  %8 = load i32, ptr %1, align 4, !tbaa !42
  %9 = sdiv i32 %8, 25
  %10 = trunc i32 %9 to i8
  %11 = load i32, ptr %1, align 4, !tbaa !42
  %12 = sext i32 %11 to i64
  %13 = getelementptr inbounds [128 x [3 x i8]], ptr @ungroup_3_in_7_bits_tab, i64 0, i64 %12
  %14 = getelementptr inbounds [3 x i8], ptr %13, i64 0, i64 0
  store i8 %10, ptr %14, align 1, !tbaa !61
  %15 = load i32, ptr %1, align 4, !tbaa !42
  %16 = srem i32 %15, 25
  %17 = sdiv i32 %16, 5
  %18 = trunc i32 %17 to i8
  %19 = load i32, ptr %1, align 4, !tbaa !42
  %20 = sext i32 %19 to i64
  %21 = getelementptr inbounds [128 x [3 x i8]], ptr @ungroup_3_in_7_bits_tab, i64 0, i64 %20
  %22 = getelementptr inbounds [3 x i8], ptr %21, i64 0, i64 1
  store i8 %18, ptr %22, align 1, !tbaa !61
  %23 = load i32, ptr %1, align 4, !tbaa !42
  %24 = srem i32 %23, 25
  %25 = srem i32 %24, 5
  %26 = trunc i32 %25 to i8
  %27 = load i32, ptr %1, align 4, !tbaa !42
  %28 = sext i32 %27 to i64
  %29 = getelementptr inbounds [128 x [3 x i8]], ptr @ungroup_3_in_7_bits_tab, i64 0, i64 %28
  %30 = getelementptr inbounds [3 x i8], ptr %29, i64 0, i64 2
  store i8 %26, ptr %30, align 1, !tbaa !61
  br label %31

31:                                               ; preds = %7
  %32 = load i32, ptr %1, align 4, !tbaa !42
  %33 = add nsw i32 %32, 1
  store i32 %33, ptr %1, align 4, !tbaa !42
  br label %4, !llvm.loop !143

34:                                               ; preds = %4
  store i32 0, ptr %1, align 4, !tbaa !42
  br label %35

35:                                               ; preds = %72, %34
  %36 = load i32, ptr %1, align 4, !tbaa !42
  %37 = icmp slt i32 %36, 32
  br i1 %37, label %38, label %75

38:                                               ; preds = %35
  %39 = load i32, ptr %1, align 4, !tbaa !42
  %40 = sext i32 %39 to i64
  %41 = getelementptr inbounds [32 x [3 x i8]], ptr @ff_ac3_ungroup_3_in_5_bits_tab, i64 0, i64 %40
  %42 = getelementptr inbounds [3 x i8], ptr %41, i64 0, i64 0
  %43 = load i8, ptr %42, align 1, !tbaa !61
  %44 = zext i8 %43 to i32
  %45 = call i32 @symmetric_dequant(i32 noundef %44, i32 noundef 3)
  %46 = load i32, ptr %1, align 4, !tbaa !42
  %47 = sext i32 %46 to i64
  %48 = getelementptr inbounds [32 x [3 x i32]], ptr @b1_mantissas, i64 0, i64 %47
  %49 = getelementptr inbounds [3 x i32], ptr %48, i64 0, i64 0
  store i32 %45, ptr %49, align 4, !tbaa !42
  %50 = load i32, ptr %1, align 4, !tbaa !42
  %51 = sext i32 %50 to i64
  %52 = getelementptr inbounds [32 x [3 x i8]], ptr @ff_ac3_ungroup_3_in_5_bits_tab, i64 0, i64 %51
  %53 = getelementptr inbounds [3 x i8], ptr %52, i64 0, i64 1
  %54 = load i8, ptr %53, align 1, !tbaa !61
  %55 = zext i8 %54 to i32
  %56 = call i32 @symmetric_dequant(i32 noundef %55, i32 noundef 3)
  %57 = load i32, ptr %1, align 4, !tbaa !42
  %58 = sext i32 %57 to i64
  %59 = getelementptr inbounds [32 x [3 x i32]], ptr @b1_mantissas, i64 0, i64 %58
  %60 = getelementptr inbounds [3 x i32], ptr %59, i64 0, i64 1
  store i32 %56, ptr %60, align 4, !tbaa !42
  %61 = load i32, ptr %1, align 4, !tbaa !42
  %62 = sext i32 %61 to i64
  %63 = getelementptr inbounds [32 x [3 x i8]], ptr @ff_ac3_ungroup_3_in_5_bits_tab, i64 0, i64 %62
  %64 = getelementptr inbounds [3 x i8], ptr %63, i64 0, i64 2
  %65 = load i8, ptr %64, align 1, !tbaa !61
  %66 = zext i8 %65 to i32
  %67 = call i32 @symmetric_dequant(i32 noundef %66, i32 noundef 3)
  %68 = load i32, ptr %1, align 4, !tbaa !42
  %69 = sext i32 %68 to i64
  %70 = getelementptr inbounds [32 x [3 x i32]], ptr @b1_mantissas, i64 0, i64 %69
  %71 = getelementptr inbounds [3 x i32], ptr %70, i64 0, i64 2
  store i32 %67, ptr %71, align 4, !tbaa !42
  br label %72

72:                                               ; preds = %38
  %73 = load i32, ptr %1, align 4, !tbaa !42
  %74 = add nsw i32 %73, 1
  store i32 %74, ptr %1, align 4, !tbaa !42
  br label %35, !llvm.loop !144

75:                                               ; preds = %35
  store i32 0, ptr %1, align 4, !tbaa !42
  br label %76

76:                                               ; preds = %127, %75
  %77 = load i32, ptr %1, align 4, !tbaa !42
  %78 = icmp slt i32 %77, 128
  br i1 %78, label %79, label %130

79:                                               ; preds = %76
  %80 = load i32, ptr %1, align 4, !tbaa !42
  %81 = sext i32 %80 to i64
  %82 = getelementptr inbounds [128 x [3 x i8]], ptr @ungroup_3_in_7_bits_tab, i64 0, i64 %81
  %83 = getelementptr inbounds [3 x i8], ptr %82, i64 0, i64 0
  %84 = load i8, ptr %83, align 1, !tbaa !61
  %85 = zext i8 %84 to i32
  %86 = call i32 @symmetric_dequant(i32 noundef %85, i32 noundef 5)
  %87 = load i32, ptr %1, align 4, !tbaa !42
  %88 = sext i32 %87 to i64
  %89 = getelementptr inbounds [128 x [3 x i32]], ptr @b2_mantissas, i64 0, i64 %88
  %90 = getelementptr inbounds [3 x i32], ptr %89, i64 0, i64 0
  store i32 %86, ptr %90, align 4, !tbaa !42
  %91 = load i32, ptr %1, align 4, !tbaa !42
  %92 = sext i32 %91 to i64
  %93 = getelementptr inbounds [128 x [3 x i8]], ptr @ungroup_3_in_7_bits_tab, i64 0, i64 %92
  %94 = getelementptr inbounds [3 x i8], ptr %93, i64 0, i64 1
  %95 = load i8, ptr %94, align 1, !tbaa !61
  %96 = zext i8 %95 to i32
  %97 = call i32 @symmetric_dequant(i32 noundef %96, i32 noundef 5)
  %98 = load i32, ptr %1, align 4, !tbaa !42
  %99 = sext i32 %98 to i64
  %100 = getelementptr inbounds [128 x [3 x i32]], ptr @b2_mantissas, i64 0, i64 %99
  %101 = getelementptr inbounds [3 x i32], ptr %100, i64 0, i64 1
  store i32 %97, ptr %101, align 4, !tbaa !42
  %102 = load i32, ptr %1, align 4, !tbaa !42
  %103 = sext i32 %102 to i64
  %104 = getelementptr inbounds [128 x [3 x i8]], ptr @ungroup_3_in_7_bits_tab, i64 0, i64 %103
  %105 = getelementptr inbounds [3 x i8], ptr %104, i64 0, i64 2
  %106 = load i8, ptr %105, align 1, !tbaa !61
  %107 = zext i8 %106 to i32
  %108 = call i32 @symmetric_dequant(i32 noundef %107, i32 noundef 5)
  %109 = load i32, ptr %1, align 4, !tbaa !42
  %110 = sext i32 %109 to i64
  %111 = getelementptr inbounds [128 x [3 x i32]], ptr @b2_mantissas, i64 0, i64 %110
  %112 = getelementptr inbounds [3 x i32], ptr %111, i64 0, i64 2
  store i32 %108, ptr %112, align 4, !tbaa !42
  %113 = load i32, ptr %1, align 4, !tbaa !42
  %114 = sdiv i32 %113, 11
  %115 = call i32 @symmetric_dequant(i32 noundef %114, i32 noundef 11)
  %116 = load i32, ptr %1, align 4, !tbaa !42
  %117 = sext i32 %116 to i64
  %118 = getelementptr inbounds [128 x [2 x i32]], ptr @b4_mantissas, i64 0, i64 %117
  %119 = getelementptr inbounds [2 x i32], ptr %118, i64 0, i64 0
  store i32 %115, ptr %119, align 8, !tbaa !42
  %120 = load i32, ptr %1, align 4, !tbaa !42
  %121 = srem i32 %120, 11
  %122 = call i32 @symmetric_dequant(i32 noundef %121, i32 noundef 11)
  %123 = load i32, ptr %1, align 4, !tbaa !42
  %124 = sext i32 %123 to i64
  %125 = getelementptr inbounds [128 x [2 x i32]], ptr @b4_mantissas, i64 0, i64 %124
  %126 = getelementptr inbounds [2 x i32], ptr %125, i64 0, i64 1
  store i32 %122, ptr %126, align 4, !tbaa !42
  br label %127

127:                                              ; preds = %79
  %128 = load i32, ptr %1, align 4, !tbaa !42
  %129 = add nsw i32 %128, 1
  store i32 %129, ptr %1, align 4, !tbaa !42
  br label %76, !llvm.loop !145

130:                                              ; preds = %76
  store i32 0, ptr %1, align 4, !tbaa !42
  br label %131

131:                                              ; preds = %140, %130
  %132 = load i32, ptr %1, align 4, !tbaa !42
  %133 = icmp slt i32 %132, 7
  br i1 %133, label %134, label %143

134:                                              ; preds = %131
  %135 = load i32, ptr %1, align 4, !tbaa !42
  %136 = call i32 @symmetric_dequant(i32 noundef %135, i32 noundef 7)
  %137 = load i32, ptr %1, align 4, !tbaa !42
  %138 = sext i32 %137 to i64
  %139 = getelementptr inbounds [8 x i32], ptr @b3_mantissas, i64 0, i64 %138
  store i32 %136, ptr %139, align 4, !tbaa !42
  br label %140

140:                                              ; preds = %134
  %141 = load i32, ptr %1, align 4, !tbaa !42
  %142 = add nsw i32 %141, 1
  store i32 %142, ptr %1, align 4, !tbaa !42
  br label %131, !llvm.loop !146

143:                                              ; preds = %131
  store i32 0, ptr %1, align 4, !tbaa !42
  br label %144

144:                                              ; preds = %153, %143
  %145 = load i32, ptr %1, align 4, !tbaa !42
  %146 = icmp slt i32 %145, 15
  br i1 %146, label %147, label %156

147:                                              ; preds = %144
  %148 = load i32, ptr %1, align 4, !tbaa !42
  %149 = call i32 @symmetric_dequant(i32 noundef %148, i32 noundef 15)
  %150 = load i32, ptr %1, align 4, !tbaa !42
  %151 = sext i32 %150 to i64
  %152 = getelementptr inbounds [16 x i32], ptr @b5_mantissas, i64 0, i64 %151
  store i32 %149, ptr %152, align 4, !tbaa !42
  br label %153

153:                                              ; preds = %147
  %154 = load i32, ptr %1, align 4, !tbaa !42
  %155 = add nsw i32 %154, 1
  store i32 %155, ptr %1, align 4, !tbaa !42
  br label %144, !llvm.loop !147

156:                                              ; preds = %144
  store i32 0, ptr %1, align 4, !tbaa !42
  br label %157

157:                                              ; preds = %179, %156
  %158 = load i32, ptr %1, align 4, !tbaa !42
  %159 = icmp slt i32 %158, 256
  br i1 %159, label %160, label %182

160:                                              ; preds = %157
  call void @llvm.lifetime.start.p0(i64 4, ptr %2) #12
  %161 = load i32, ptr %1, align 4, !tbaa !42
  %162 = ashr i32 %161, 5
  %163 = load i32, ptr %1, align 4, !tbaa !42
  %164 = ashr i32 %163, 7
  %165 = shl i32 %164, 3
  %166 = sub nsw i32 %162, %165
  %167 = sub nsw i32 %166, 5
  store i32 %167, ptr %2, align 4, !tbaa !42
  %168 = load i32, ptr %2, align 4, !tbaa !42
  %169 = sitofp i32 %168 to float
  %170 = call nsz float @llvm.pow.f32(float 2.000000e+00, float %169)
  %171 = load i32, ptr %1, align 4, !tbaa !42
  %172 = and i32 %171, 31
  %173 = or i32 %172, 32
  %174 = sitofp i32 %173 to float
  %175 = fmul nsz float %170, %174
  %176 = load i32, ptr %1, align 4, !tbaa !42
  %177 = sext i32 %176 to i64
  %178 = getelementptr inbounds [256 x float], ptr @dynamic_range_tab, i64 0, i64 %177
  store float %175, ptr %178, align 4, !tbaa !31
  call void @llvm.lifetime.end.p0(i64 4, ptr %2) #12
  br label %179

179:                                              ; preds = %160
  %180 = load i32, ptr %1, align 4, !tbaa !42
  %181 = add nsw i32 %180, 1
  store i32 %181, ptr %1, align 4, !tbaa !42
  br label %157, !llvm.loop !148

182:                                              ; preds = %157
  store i32 0, ptr %1, align 4, !tbaa !42
  br label %183

183:                                              ; preds = %205, %182
  %184 = load i32, ptr %1, align 4, !tbaa !42
  %185 = icmp slt i32 %184, 256
  br i1 %185, label %186, label %208

186:                                              ; preds = %183
  call void @llvm.lifetime.start.p0(i64 4, ptr %3) #12
  %187 = load i32, ptr %1, align 4, !tbaa !42
  %188 = ashr i32 %187, 4
  %189 = load i32, ptr %1, align 4, !tbaa !42
  %190 = ashr i32 %189, 7
  %191 = shl i32 %190, 4
  %192 = sub nsw i32 %188, %191
  %193 = sub nsw i32 %192, 4
  store i32 %193, ptr %3, align 4, !tbaa !42
  %194 = load i32, ptr %3, align 4, !tbaa !42
  %195 = sitofp i32 %194 to float
  %196 = call nsz float @llvm.pow.f32(float 2.000000e+00, float %195)
  %197 = load i32, ptr %1, align 4, !tbaa !42
  %198 = and i32 %197, 15
  %199 = or i32 %198, 16
  %200 = sitofp i32 %199 to float
  %201 = fmul nsz float %196, %200
  %202 = load i32, ptr %1, align 4, !tbaa !42
  %203 = sext i32 %202 to i64
  %204 = getelementptr inbounds [256 x float], ptr @ff_ac3_heavy_dynamic_range_tab, i64 0, i64 %203
  store float %201, ptr %204, align 4, !tbaa !31
  call void @llvm.lifetime.end.p0(i64 4, ptr %3) #12
  br label %205

205:                                              ; preds = %186
  %206 = load i32, ptr %1, align 4, !tbaa !42
  %207 = add nsw i32 %206, 1
  store i32 %207, ptr %1, align 4, !tbaa !42
  br label %183, !llvm.loop !149

208:                                              ; preds = %183
  call void @llvm.lifetime.end.p0(i64 4, ptr %1) #12
  ret void
}