; Function Attrs: cold nofree norecurse nosync nounwind optsize memory(readwrite, argmem: none, inaccessiblemem: none) uwtable
define internal void @ac3_tables_init() #4 {
  br label %1

1:                                                ; preds = %0, %1
  %indvars.iv = phi i64 [ 0, %0 ], [ %indvars.iv.next, %1 ]
  %.lhs.trunc = trunc i64 %indvars.iv to i8
  %2 = udiv i8 %.lhs.trunc, 25
  %3 = getelementptr inbounds nuw [128 x [3 x i8]], ptr @ungroup_3_in_7_bits_tab, i64 0, i64 %indvars.iv
  store i8 %2, ptr %3, align 1, !tbaa !44
  %4 = urem i8 %.lhs.trunc, 25
  %5 = udiv i8 %4, 5
  %6 = getelementptr inbounds nuw i8, ptr %3, i64 1
  store i8 %5, ptr %6, align 1, !tbaa !44
  %7 = urem i8 %4, 5
  %8 = getelementptr inbounds nuw i8, ptr %3, i64 2
  store i8 %7, ptr %8, align 1, !tbaa !44
  %indvars.iv.next = add nuw nsw i64 %indvars.iv, 1
  %exitcond.not = icmp eq i64 %indvars.iv.next, 128
  br i1 %exitcond.not, label %.preheader66, label %1, !llvm.loop !263

.preheader66:                                     ; preds = %1, %.preheader66
  %indvars.iv75 = phi i64 [ %indvars.iv.next76, %.preheader66 ], [ 0, %1 ]
  %9 = getelementptr inbounds nuw [32 x [3 x i8]], ptr @ff_ac3_ungroup_3_in_5_bits_tab, i64 0, i64 %indvars.iv75
  %10 = load i8, ptr %9, align 1, !tbaa !44
  %11 = zext i8 %10 to i32
  %12 = shl nuw i32 %11, 24
  %13 = add i32 %12, -16777216
  %14 = sdiv i32 %13, 3
  %15 = getelementptr inbounds nuw [32 x [3 x i32]], ptr @b1_mantissas, i64 0, i64 %indvars.iv75
  store i32 %14, ptr %15, align 4, !tbaa !43
  %16 = getelementptr inbounds nuw i8, ptr %9, i64 1
  %17 = load i8, ptr %16, align 1, !tbaa !44
  %18 = zext i8 %17 to i32
  %19 = shl nuw i32 %18, 24
  %20 = add i32 %19, -16777216
  %21 = sdiv i32 %20, 3
  %22 = getelementptr inbounds nuw i8, ptr %15, i64 4
  store i32 %21, ptr %22, align 4, !tbaa !43
  %23 = getelementptr inbounds nuw i8, ptr %9, i64 2
  %24 = load i8, ptr %23, align 1, !tbaa !44
  %25 = zext i8 %24 to i32
  %26 = shl nuw i32 %25, 24
  %27 = add i32 %26, -16777216
  %28 = sdiv i32 %27, 3
  %29 = getelementptr inbounds nuw i8, ptr %15, i64 8
  store i32 %28, ptr %29, align 4, !tbaa !43
  %indvars.iv.next76 = add nuw nsw i64 %indvars.iv75, 1
  %exitcond78.not = icmp eq i64 %indvars.iv.next76, 32
  br i1 %exitcond78.not, label %.preheader65, label %.preheader66, !llvm.loop !264

.preheader65:                                     ; preds = %.preheader66, %.preheader65
  %indvars.iv79 = phi i64 [ %indvars.iv.next80, %.preheader65 ], [ 0, %.preheader66 ]
  %30 = getelementptr inbounds nuw [128 x [3 x i8]], ptr @ungroup_3_in_7_bits_tab, i64 0, i64 %indvars.iv79
  %31 = load i8, ptr %30, align 1, !tbaa !44
  %32 = zext i8 %31 to i32
  %33 = shl nuw i32 %32, 24
  %34 = add i32 %33, -33554432
  %35 = sdiv i32 %34, 5
  %36 = getelementptr inbounds nuw [128 x [3 x i32]], ptr @b2_mantissas, i64 0, i64 %indvars.iv79
  store i32 %35, ptr %36, align 4, !tbaa !43
  %37 = getelementptr inbounds nuw i8, ptr %30, i64 1
  %38 = load i8, ptr %37, align 1, !tbaa !44
  %39 = zext i8 %38 to i32
  %40 = shl nuw i32 %39, 24
  %41 = add i32 %40, -33554432
  %42 = sdiv i32 %41, 5
  %43 = getelementptr inbounds nuw i8, ptr %36, i64 4
  store i32 %42, ptr %43, align 4, !tbaa !43
  %44 = getelementptr inbounds nuw i8, ptr %30, i64 2
  %45 = load i8, ptr %44, align 1, !tbaa !44
  %46 = zext i8 %45 to i32
  %47 = shl nuw i32 %46, 24
  %48 = add i32 %47, -33554432
  %49 = sdiv i32 %48, 5
  %50 = getelementptr inbounds nuw i8, ptr %36, i64 8
  store i32 %49, ptr %50, align 4, !tbaa !43
  %.lhs.trunc57 = trunc i64 %indvars.iv79 to i8
  %51 = udiv i8 %.lhs.trunc57, 11
  %.zext58 = zext nneg i8 %51 to i32
  %52 = shl nuw nsw i32 %.zext58, 24
  %53 = add nsw i32 %52, -83886080
  %54 = sdiv i32 %53, 11
  %55 = getelementptr inbounds nuw [128 x [2 x i32]], ptr @b4_mantissas, i64 0, i64 %indvars.iv79
  store i32 %54, ptr %55, align 8, !tbaa !43
  %56 = urem i8 %.lhs.trunc57, 11
  %.zext60 = zext nneg i8 %56 to i32
  %57 = shl nuw nsw i32 %.zext60, 24
  %58 = add nsw i32 %57, -83886080
  %59 = sdiv i32 %58, 11
  %60 = getelementptr inbounds nuw i8, ptr %55, i64 4
  store i32 %59, ptr %60, align 4, !tbaa !43
  %indvars.iv.next80 = add nuw nsw i64 %indvars.iv79, 1
  %exitcond82.not = icmp eq i64 %indvars.iv.next80, 128
  br i1 %exitcond82.not, label %.preheader64, label %.preheader65, !llvm.loop !265

.preheader64:                                     ; preds = %.preheader65, %.preheader64
  %indvars.iv83 = phi i64 [ %indvars.iv.next84, %.preheader64 ], [ 0, %.preheader65 ]
  %indvars.iv83.tr = trunc i64 %indvars.iv83 to i32
  %61 = shl i32 %indvars.iv83.tr, 24
  %62 = add i32 %61, -50331648
  %63 = sdiv i32 %62, 7
  %64 = getelementptr inbounds nuw [8 x i32], ptr @b3_mantissas, i64 0, i64 %indvars.iv83
  store i32 %63, ptr %64, align 4, !tbaa !43
  %indvars.iv.next84 = add nuw nsw i64 %indvars.iv83, 1
  %exitcond86.not = icmp eq i64 %indvars.iv.next84, 7
  br i1 %exitcond86.not, label %.preheader63, label %.preheader64, !llvm.loop !266

.preheader63:                                     ; preds = %.preheader64, %.preheader63
  %indvars.iv87 = phi i64 [ %indvars.iv.next88, %.preheader63 ], [ 0, %.preheader64 ]
  %indvars.iv87.tr = trunc i64 %indvars.iv87 to i32
  %65 = shl i32 %indvars.iv87.tr, 24
  %66 = add i32 %65, -117440512
  %67 = sdiv i32 %66, 15
  %68 = getelementptr inbounds nuw [16 x i32], ptr @b5_mantissas, i64 0, i64 %indvars.iv87
  store i32 %67, ptr %68, align 4, !tbaa !43
  %indvars.iv.next88 = add nuw nsw i64 %indvars.iv87, 1
  %exitcond90.not = icmp eq i64 %indvars.iv.next88, 15
  br i1 %exitcond90.not, label %.preheader62, label %.preheader63, !llvm.loop !267

.preheader62:                                     ; preds = %.preheader63, %.preheader62
  %indvars.iv91 = phi i64 [ %indvars.iv.next92, %.preheader62 ], [ 0, %.preheader63 ]
  %69 = trunc nuw nsw i64 %indvars.iv91 to i32
  %70 = lshr i32 %69, 5
  %71 = lshr i32 %69, 4
  %72 = and i32 %71, 8
  %73 = add nsw i32 %70, -5
  %74 = sub nsw i32 %73, %72
  %exp250 = tail call nsz float @llvm.ldexp.f32.i32(float 1.000000e+00, i32 %74)
  %75 = and i32 %69, 31
  %76 = or disjoint i32 %75, 32
  %77 = uitofp nneg i32 %76 to float
  %78 = fmul nsz float %exp250, %77
  %79 = getelementptr inbounds nuw [256 x float], ptr @dynamic_range_tab, i64 0, i64 %indvars.iv91
  store float %78, ptr %79, align 4, !tbaa !27
  %indvars.iv.next92 = add nuw nsw i64 %indvars.iv91, 1
  %exitcond94.not = icmp eq i64 %indvars.iv.next92, 256
  br i1 %exitcond94.not, label %.preheader, label %.preheader62, !llvm.loop !268

.preheader:                                       ; preds = %.preheader62, %.preheader
  %indvars.iv95 = phi i64 [ %indvars.iv.next96, %.preheader ], [ 0, %.preheader62 ]
  %80 = trunc nuw nsw i64 %indvars.iv95 to i32
  %81 = lshr i32 %80, 4
  %82 = lshr i32 %80, 3
  %83 = and i32 %82, 16
  %84 = add nsw i32 %81, -4
  %85 = sub nsw i32 %84, %83
  %exp2 = tail call nsz float @llvm.ldexp.f32.i32(float 1.000000e+00, i32 %85)
  %86 = and i32 %80, 15
  %87 = or disjoint i32 %86, 16
  %88 = uitofp nneg i32 %87 to float
  %89 = fmul nsz float %exp2, %88
  %90 = getelementptr inbounds nuw [256 x float], ptr @ff_ac3_heavy_dynamic_range_tab, i64 0, i64 %indvars.iv95
  store float %89, ptr %90, align 4, !tbaa !27
  %indvars.iv.next96 = add nuw nsw i64 %indvars.iv95, 1
  %exitcond98.not = icmp eq i64 %indvars.iv.next96, 256
  br i1 %exitcond98.not, label %91, label %.preheader, !llvm.loop !269

91:                                               ; preds = %.preheader
  ret void
}